target datalayout = "e-m:e-p270:32:32-p271:32:32-p272:64:64-i64:64-i128:128-f80:128-n8:16:32:64-S128"
target triple = "x86_64-pc-linux-gnu"

@.str.15 = private unnamed_addr constant [14 x i8] c"value-changed\00", align 1
@.str.49 = private unnamed_addr constant [12 x i8] c"preferences\00", align 1

; Function Attrs: nounwind uwtable
define ptr @dt_gui_preferences_enum(ptr noundef %0, ptr noundef %1) #0 {
  %3 = alloca ptr, align 8
  %4 = alloca ptr, align 8
  %5 = alloca ptr, align 8
  %6 = alloca i32, align 4
  %7 = alloca ptr, align 8
  %8 = alloca ptr, align 8
  %9 = alloca ptr, align 8
  %10 = alloca i32, align 4
  %11 = alloca ptr, align 8
  %12 = alloca i32, align 4
  %13 = alloca ptr, align 8
  store ptr %0, ptr %3, align 8, !tbaa !71
  store ptr %1, ptr %4, align 8, !tbaa !73
  call void @llvm.lifetime.start.p0(i64 8, ptr %5) #10
  %14 = load ptr, ptr %3, align 8, !tbaa !71
  %15 = call ptr @dt_bauhaus_combobox_new_action(ptr noundef %14)
  store ptr %15, ptr %5, align 8, !tbaa !6
  call void @llvm.lifetime.start.p0(i64 4, ptr %6) #10
  %16 = load ptr, ptr %3, align 8, !tbaa !71
  %17 = icmp ne ptr %16, null
  %18 = select i1 %17, i32 1, i32 0
  store i32 %18, ptr %6, align 4, !tbaa !57
  %19 = load ptr, ptr %5, align 8, !tbaa !6
  %20 = load i32, ptr %6, align 4, !tbaa !57
  call void @dt_bauhaus_combobox_set_selected_text_align(ptr noundef %19, i32 noundef %20)
  %21 = load ptr, ptr %3, align 8, !tbaa !71
  %22 = icmp ne ptr %21, null
  br i1 %22, label %23, label %28

23:                                               ; preds = %2
  %24 = load ptr, ptr %5, align 8, !tbaa !6
  %25 = load ptr, ptr %4, align 8, !tbaa !73
  %26 = call ptr @dt_confgen_get_tooltip(ptr noundef %25)
  %27 = call ptr @dcgettext(ptr noundef null, ptr noundef %26, i32 noundef 5) #10
  call void @gtk_widget_set_tooltip_text(ptr noundef %24, ptr noundef %27)
  br label %28

28:                                               ; preds = %23, %2
  call void @llvm.lifetime.start.p0(i64 8, ptr %7) #10
  %29 = load ptr, ptr %4, align 8, !tbaa !73
  %30 = call ptr @dt_confgen_get(ptr noundef %29, i32 noundef 3)
  store ptr %30, ptr %7, align 8, !tbaa !73
  call void @llvm.lifetime.start.p0(i64 8, ptr %8) #10
  %31 = load ptr, ptr %4, align 8, !tbaa !73
  %32 = call ptr @dt_confgen_get(ptr noundef %31, i32 noundef 0)
  store ptr %32, ptr %8, align 8, !tbaa !73
  call void @llvm.lifetime.start.p0(i64 8, ptr %9) #10
  %33 = load ptr, ptr %4, align 8, !tbaa !73
  %34 = call ptr @dt_conf_get_string_const(ptr noundef %33)
  store ptr %34, ptr %9, align 8, !tbaa !73
  call void @llvm.lifetime.start.p0(i64 4, ptr %10) #10
  store i32 0, ptr %10, align 4, !tbaa !57
  br label %35

35:                                               ; preds = %95, %28
  %36 = load ptr, ptr %7, align 8, !tbaa !73
  %37 = icmp ne ptr %36, null
  br i1 %37, label %38, label %49

38:                                               ; preds = %35
  %39 = load ptr, ptr %7, align 8, !tbaa !73
  %40 = getelementptr inbounds nuw i8, ptr %39, i32 1
  store ptr %40, ptr %7, align 8, !tbaa !73
  %41 = load i8, ptr %39, align 1, !tbaa !74
  %42 = sext i8 %41 to i32
  %43 = icmp eq i32 %42, 91
  br i1 %43, label %44, label %49

44:                                               ; preds = %38
  %45 = load ptr, ptr %7, align 8, !tbaa !73
  %46 = load i8, ptr %45, align 1, !tbaa !74
  %47 = sext i8 %46 to i32
  %48 = icmp ne i32 %47, 0
  br label %49

49:                                               ; preds = %44, %38, %35
  %50 = phi i1 [ false, %38 ], [ false, %35 ], [ %48, %44 ]
  br i1 %50, label %51, label %96

51:                                               ; preds = %49
  call void @llvm.lifetime.start.p0(i64 8, ptr %11) #10
  %52 = load ptr, ptr %7, align 8, !tbaa !73
  %53 = call ptr @strchr(ptr noundef %52, i32 noundef 93) #12
  store ptr %53, ptr %11, align 8, !tbaa !73
  %54 = load ptr, ptr %11, align 8, !tbaa !73
  %55 = icmp ne ptr %54, null
  br i1 %55, label %57, label %56

56:                                               ; preds = %51
  store i32 3, ptr %12, align 4
  br label %93

57:                                               ; preds = %51
  call void @llvm.lifetime.start.p0(i64 8, ptr %13) #10
  %58 = load ptr, ptr %7, align 8, !tbaa !73
  %59 = load ptr, ptr %11, align 8, !tbaa !73
  %60 = load ptr, ptr %7, align 8, !tbaa !73
  %61 = ptrtoint ptr %59 to i64
  %62 = ptrtoint ptr %60 to i64
  %63 = sub i64 %61, %62
  %64 = call noalias ptr @g_strndup(ptr noundef %58, i64 noundef %63)
  store ptr %64, ptr %13, align 8, !tbaa !73
  %65 = load ptr, ptr %5, align 8, !tbaa !6
  %66 = load ptr, ptr %13, align 8, !tbaa !73
  %67 = call ptr @g_dpgettext2(ptr noundef null, ptr noundef @.str.49, ptr noundef %66)
  %68 = load i32, ptr %6, align 4, !tbaa !57
  %69 = load ptr, ptr %7, align 8, !tbaa !73
  call void @dt_bauhaus_combobox_add_full(ptr noundef %65, ptr noundef %67, i32 noundef %68, ptr noundef %69, ptr noundef null, i32 noundef 1)
  %70 = load ptr, ptr %8, align 8, !tbaa !73
  %71 = load ptr, ptr %13, align 8, !tbaa !73
  %72 = call i32 @g_strcmp0(ptr noundef %70, ptr noundef %71)
  %73 = icmp ne i32 %72, 0
  br i1 %73, label %79, label %74

74:                                               ; preds = %57
  %75 = load ptr, ptr %5, align 8, !tbaa !6
  %76 = load ptr, ptr %7, align 8, !tbaa !73
  %77 = ptrtoint ptr %76 to i64
  %78 = trunc i64 %77 to i32
  call void @dt_bauhaus_combobox_set_default(ptr noundef %75, i32 noundef %78)
  br label %79

79:                                               ; preds = %74, %57
  %80 = load ptr, ptr %9, align 8, !tbaa !73
  %81 = load ptr, ptr %13, align 8, !tbaa !73
  %82 = call i32 @g_strcmp0(ptr noundef %80, ptr noundef %81)
  %83 = icmp ne i32 %82, 0
  br i1 %83, label %87, label %84

84:                                               ; preds = %79
  %85 = load ptr, ptr %5, align 8, !tbaa !6
  %86 = load i32, ptr %10, align 4, !tbaa !57
  call void @dt_bauhaus_combobox_set(ptr noundef %85, i32 noundef %86)
  br label %87

87:                                               ; preds = %84, %79
  %88 = load ptr, ptr %13, align 8, !tbaa !73
  call void @g_free(ptr noundef %88)
  %89 = load ptr, ptr %11, align 8, !tbaa !73
  %90 = getelementptr inbounds i8, ptr %89, i64 1
  store ptr %90, ptr %7, align 8, !tbaa !73
  %91 = load i32, ptr %10, align 4, !tbaa !57
  %92 = add nsw i32 %91, 1
  store i32 %92, ptr %10, align 4, !tbaa !57
  call void @llvm.lifetime.end.p0(i64 8, ptr %13) #10
  store i32 0, ptr %12, align 4
  br label %93

93:                                               ; preds = %87, %56
  call void @llvm.lifetime.end.p0(i64 8, ptr %11) #10
  %94 = load i32, ptr %12, align 4
  switch i32 %94, label %102 [
    i32 0, label %95
    i32 3, label %96
  ]

95:                                               ; preds = %93
  br label %35

96:                                               ; preds = %93, %49
  %97 = load ptr, ptr %5, align 8, !tbaa !6
  %98 = call ptr @g_type_check_instance_cast(ptr noundef %97, i64 noundef 80)
  %99 = load ptr, ptr %4, align 8, !tbaa !73
  %100 = call i64 @g_signal_connect_data(ptr noundef %98, ptr noundef @.str.15, ptr noundef @_gui_preferences_enum_callback, ptr noundef %99, ptr noundef null, i32 noundef 0)
  %101 = load ptr, ptr %5, align 8, !tbaa !6
  store i32 1, ptr %12, align 4
  call void @llvm.lifetime.end.p0(i64 4, ptr %10) #10
  call void @llvm.lifetime.end.p0(i64 8, ptr %9) #10
  call void @llvm.lifetime.end.p0(i64 8, ptr %8) #10
  call void @llvm.lifetime.end.p0(i64 8, ptr %7) #10
  call void @llvm.lifetime.end.p0(i64 4, ptr %6) #10
  call void @llvm.lifetime.end.p0(i64 8, ptr %5) #10
  ret ptr %101

102:                                              ; preds = %93
  unreachable
}