; Function Attrs: nounwind uwtable
define noundef ptr @dt_gui_preferences_enum(ptr noundef %0, ptr noundef %1) local_unnamed_addr #0 {
  %3 = tail call ptr @dt_bauhaus_combobox_new_action(ptr noundef %0) #12
  %.not = icmp ne ptr %0, null
  %4 = zext i1 %.not to i32
  tail call void @dt_bauhaus_combobox_set_selected_text_align(ptr noundef %3, i32 noundef %4) #12
  br i1 %.not, label %5, label %8

5:                                                ; preds = %2
  %6 = tail call ptr @dt_confgen_get_tooltip(ptr noundef %1) #12
  %7 = tail call ptr @dcgettext(ptr noundef null, ptr noundef %6, i32 noundef 5) #12
  tail call void @gtk_widget_set_tooltip_text(ptr noundef %3, ptr noundef %7) #12
  br label %8

8:                                                ; preds = %5, %2
  %9 = tail call ptr @dt_confgen_get(ptr noundef %1, i32 noundef 3) #12
  %10 = tail call ptr @dt_confgen_get(ptr noundef %1, i32 noundef 0) #12
  %11 = tail call ptr @dt_conf_get_string_const(ptr noundef %1) #12
  %.not4049 = icmp eq ptr %9, null
  br i1 %.not4049, label %.critedge, label %.lr.ph.preheader

.lr.ph.preheader:                                 ; preds = %8
  %12 = load i8, ptr %9, align 1, !tbaa !59
  %13 = icmp eq i8 %12, 91
  br i1 %13, label %.lr.ph56, label %.critedge

.lr.ph56:                                         ; preds = %.lr.ph.preheader, %.lr.ph
  %.pn = phi ptr [ %30, %.lr.ph ], [ %9, %.lr.ph.preheader ]
  %.0375055 = phi i32 [ %31, %.lr.ph ], [ 0, %.lr.ph.preheader ]
  %14 = getelementptr inbounds nuw i8, ptr %.pn, i64 1
  %15 = load i8, ptr %14, align 1, !tbaa !59
  %.not41 = icmp eq i8 %15, 0
  br i1 %.not41, label %.critedge, label %16

16:                                               ; preds = %.lr.ph56
  %17 = tail call ptr @strchr(ptr noundef nonnull dereferenceable(1) %14, i32 noundef 93) #14
  %.not42 = icmp eq ptr %17, null
  br i1 %.not42, label %.critedge, label %18

18:                                               ; preds = %16
  %19 = ptrtoint ptr %17 to i64
  %20 = ptrtoint ptr %14 to i64
  %21 = sub i64 %19, %20
  %22 = tail call noalias ptr @g_strndup(ptr noundef nonnull %14, i64 noundef %21) #12
  %23 = tail call ptr @g_dpgettext2(ptr noundef null, ptr noundef nonnull @.str.49, ptr noundef %22) #12
  tail call void @dt_bauhaus_combobox_add_full(ptr noundef %3, ptr noundef %23, i32 noundef %4, ptr noundef nonnull %14, ptr noundef null, i32 noundef 1) #12
  %24 = tail call i32 @g_strcmp0(ptr noundef %10, ptr noundef %22) #12
  %.not43 = icmp eq i32 %24, 0
  br i1 %.not43, label %25, label %27

25:                                               ; preds = %18
  %26 = trunc i64 %20 to i32
  tail call void @dt_bauhaus_combobox_set_default(ptr noundef %3, i32 noundef %26) #12
  br label %27

27:                                               ; preds = %25, %18
  %28 = tail call i32 @g_strcmp0(ptr noundef %11, ptr noundef %22) #12
  %.not44 = icmp eq i32 %28, 0
  br i1 %.not44, label %29, label %.lr.ph

29:                                               ; preds = %27
  tail call void @dt_bauhaus_combobox_set(ptr noundef %3, i32 noundef %.0375055) #12
  br label %.lr.ph

.lr.ph:                                           ; preds = %27, %29
  tail call void @g_free(ptr noundef %22) #12
  %30 = getelementptr inbounds nuw i8, ptr %17, i64 1
  %31 = add nuw nsw i32 %.0375055, 1
  %32 = load i8, ptr %30, align 1, !tbaa !59
  %33 = icmp eq i8 %32, 91
  br i1 %33, label %.lr.ph56, label %.critedge

.critedge:                                        ; preds = %16, %.lr.ph, %.lr.ph56, %.lr.ph.preheader, %8
  %34 = tail call ptr @g_type_check_instance_cast(ptr noundef %3, i64 noundef 80) #12
  %35 = tail call i64 @g_signal_connect_data(ptr noundef %34, ptr noundef nonnull @.str.15, ptr noundef nonnull @_gui_preferences_enum_callback, ptr noundef %1, ptr noundef null, i32 noundef 0) #12
  ret ptr %3
}